target datalayout = "e-m:e-p270:32:32-p271:32:32-p272:64:64-i64:64-i128:128-f80:128-n8:16:32:64-S128"
target triple = "x86_64-pc-linux-gnu"

%union.pthread_mutex_t = type { %struct.__pthread_mutex_s }
%struct.__pthread_mutex_s = type { i32, i32, i32, i32, i32, i16, i16, %struct.__pthread_internal_list }
%struct.__pthread_internal_list = type { ptr, ptr }
%struct.slurm_bb_ops = type { ptr, ptr, ptr, ptr, ptr, ptr, ptr, ptr, ptr, ptr, ptr, ptr, ptr, ptr, ptr, ptr, ptr, ptr, ptr, ptr }
%struct.timeval = type { i64, i64 }

@g_context_lock = internal global %union.pthread_mutex_t zeroinitializer, align 8
@.str.1 = private unnamed_addr constant [29 x i8] c"%s: pthread_mutex_lock(): %m\00", align 1
@g_context_cnt = internal global i32 -1, align 4
@ops = internal global ptr null, align 8
@.str.8 = private unnamed_addr constant [31 x i8] c"%s: pthread_mutex_unlock(): %m\00", align 1
@__func__.bb_g_reconfig = private unnamed_addr constant [14 x i8] c"bb_g_reconfig\00", align 1

; Function Attrs: nounwind uwtable
define dso_local i32 @bb_g_reconfig() #0 {
  %1 = alloca %struct.timeval, align 8
  %2 = alloca %struct.timeval, align 8
  %3 = alloca [20 x i8], align 16
  %4 = alloca i64, align 8
  %5 = alloca i32, align 4
  %6 = alloca i32, align 4
  %7 = alloca i32, align 4
  %8 = alloca i32, align 4
  %9 = alloca i32, align 4
  call void @llvm.lifetime.start.p0(i64 16, ptr %1) #7
  call void @llvm.lifetime.start.p0(i64 16, ptr %2) #7
  call void @llvm.lifetime.start.p0(i64 20, ptr %3) #7
  call void @llvm.memset.p0.i64(ptr align 16 %3, i8 0, i64 20, i1 false)
  call void @llvm.lifetime.start.p0(i64 8, ptr %4) #7
  call void @llvm.lifetime.start.p0(i64 4, ptr %5) #7
  call void @llvm.lifetime.start.p0(i64 4, ptr %6) #7
  store i32 0, ptr %6, align 4
  call void @llvm.lifetime.start.p0(i64 4, ptr %7) #7
  %10 = call i32 @gettimeofday(ptr noundef %1, ptr noundef null) #7
  br label %11

11:                                               ; preds = %0
  call void @llvm.lifetime.start.p0(i64 4, ptr %8) #7
  %12 = call i32 @pthread_mutex_lock(ptr noundef @g_context_lock) #7
  store i32 %12, ptr %8, align 4
  %13 = load i32, ptr %8, align 4
  %14 = icmp ne i32 %13, 0
  br i1 %14, label %15, label %18

15:                                               ; preds = %11
  %16 = load i32, ptr %8, align 4
  %17 = call ptr @__errno_location() #8
  store i32 %16, ptr %17, align 4
  call void (ptr, ...) @fatal_abort(ptr noundef @.str.1, ptr noundef @__func__.bb_g_reconfig) #9
  unreachable

18:                                               ; preds = %11
  call void @llvm.lifetime.end.p0(i64 4, ptr %8) #7
  br label %19

19:                                               ; preds = %18
  br label %20

20:                                               ; preds = %19
  store i32 0, ptr %5, align 4
  br label %21

21:                                               ; preds = %47, %20
  %22 = load i32, ptr %5, align 4
  %23 = load i32, ptr @g_context_cnt, align 4
  %24 = icmp slt i32 %22, %23
  br i1 %24, label %25, label %28

25:                                               ; preds = %21
  %26 = load i32, ptr %6, align 4
  %27 = icmp eq i32 %26, 0
  br label %28

28:                                               ; preds = %25, %21
  %29 = phi i1 [ false, %21 ], [ %27, %25 ]
  br i1 %29, label %30, label %50

30:                                               ; preds = %28
  %31 = load ptr, ptr @ops, align 8
  %32 = load i32, ptr %5, align 4
  %33 = sext i32 %32 to i64
  %34 = getelementptr inbounds %struct.slurm_bb_ops, ptr %31, i64 %33
  %35 = getelementptr inbounds nuw %struct.slurm_bb_ops, ptr %34, i32 0, i32 5
  %36 = load ptr, ptr %35, align 8
  %37 = call i32 %36()
  store i32 %37, ptr %7, align 4
  %38 = load i32, ptr %6, align 4
  %39 = load i32, ptr %7, align 4
  %40 = icmp sgt i32 %38, %39
  br i1 %40, label %41, label %43

41:                                               ; preds = %30
  %42 = load i32, ptr %6, align 4
  br label %45

43:                                               ; preds = %30
  %44 = load i32, ptr %7, align 4
  br label %45

45:                                               ; preds = %43, %41
  %46 = phi i32 [ %42, %41 ], [ %44, %43 ]
  store i32 %46, ptr %6, align 4
  br label %47

47:                                               ; preds = %45
  %48 = load i32, ptr %5, align 4
  %49 = add nsw i32 %48, 1
  store i32 %49, ptr %5, align 4
  br label %21, !llvm.loop !17

50:                                               ; preds = %28
  br label %51

51:                                               ; preds = %50
  call void @llvm.lifetime.start.p0(i64 4, ptr %9) #7
  %52 = call i32 @pthread_mutex_unlock(ptr noundef @g_context_lock) #7
  store i32 %52, ptr %9, align 4
  %53 = load i32, ptr %9, align 4
  %54 = icmp ne i32 %53, 0
  br i1 %54, label %55, label %58

55:                                               ; preds = %51
  %56 = load i32, ptr %9, align 4
  %57 = call ptr @__errno_location() #8
  store i32 %56, ptr %57, align 4
  call void (ptr, ...) @fatal_abort(ptr noundef @.str.8, ptr noundef @__func__.bb_g_reconfig) #9
  unreachable

58:                                               ; preds = %51
  call void @llvm.lifetime.end.p0(i64 4, ptr %9) #7
  br label %59

59:                                               ; preds = %58
  br label %60

60:                                               ; preds = %59
  br label %61

61:                                               ; preds = %60
  %62 = call i32 @gettimeofday(ptr noundef %2, ptr noundef null) #7
  %63 = getelementptr inbounds [20 x i8], ptr %3, i64 0, i64 0
  call void @slurm_diff_tv_str(ptr noundef %1, ptr noundef %2, ptr noundef %63, i32 noundef 20, ptr noundef @__func__.bb_g_reconfig, i64 noundef 0, ptr noundef %4)
  br label %64

64:                                               ; preds = %61
  br label %65

65:                                               ; preds = %64
  %66 = load i32, ptr %6, align 4
  call void @llvm.lifetime.end.p0(i64 4, ptr %7) #7
  call void @llvm.lifetime.end.p0(i64 4, ptr %6) #7
  call void @llvm.lifetime.end.p0(i64 4, ptr %5) #7
  call void @llvm.lifetime.end.p0(i64 8, ptr %4) #7
  call void @llvm.lifetime.end.p0(i64 20, ptr %3) #7
  call void @llvm.lifetime.end.p0(i64 16, ptr %2) #7
  call void @llvm.lifetime.end.p0(i64 16, ptr %1) #7
  ret i32 %66
}