; Function Attrs: nounwind uwtable
define dso_local range(i32 0, -2147483648) i32 @bb_g_reconfig() local_unnamed_addr #0 {
  %1 = alloca %struct.timeval, align 8
  %2 = alloca %struct.timeval, align 8
  %3 = alloca [20 x i8], align 16
  %4 = alloca i64, align 8
  call void @llvm.lifetime.start.p0(i64 16, ptr nonnull %1) #11
  call void @llvm.lifetime.start.p0(i64 16, ptr nonnull %2) #11
  call void @llvm.lifetime.start.p0(i64 20, ptr nonnull %3) #11
  call void @llvm.memset.p0.i64(ptr noundef nonnull align 16 dereferenceable(20) %3, i8 0, i64 20, i1 false)
  call void @llvm.lifetime.start.p0(i64 8, ptr nonnull %4) #11
  %5 = call i32 @gettimeofday(ptr noundef nonnull %1, ptr noundef null) #11
  %6 = tail call i32 @pthread_mutex_lock(ptr noundef nonnull @g_context_lock) #11
  %.not = icmp eq i32 %6, 0
  br i1 %.not, label %.preheader, label %9

.preheader:                                       ; preds = %0
  %7 = load i32, ptr @g_context_cnt, align 4
  %8 = icmp sgt i32 %7, 0
  br i1 %8, label %.lr.ph, label %._crit_edge

9:                                                ; preds = %0
  %10 = tail call ptr @__errno_location() #12
  store i32 %6, ptr %10, align 4
  tail call void (ptr, ...) @fatal_abort(ptr noundef nonnull @.str.1, ptr noundef nonnull @__func__.bb_g_reconfig) #13
  unreachable

.lr.ph:                                           ; preds = %.preheader, %.lr.ph
  %indvars.iv = phi i64 [ %indvars.iv.next, %.lr.ph ], [ 0, %.preheader ]
  %11 = load ptr, ptr @ops, align 8
  %12 = getelementptr inbounds nuw %struct.slurm_bb_ops, ptr %11, i64 %indvars.iv, i32 5
  %13 = load ptr, ptr %12, align 8
  %14 = tail call i32 %13() #11
  %indvars.iv.next = add nuw nsw i64 %indvars.iv, 1
  %15 = load i32, ptr @g_context_cnt, align 4
  %16 = sext i32 %15 to i64
  %17 = icmp slt i64 %indvars.iv.next, %16
  %18 = icmp slt i32 %14, 1
  %19 = select i1 %17, i1 %18, i1 false
  br i1 %19, label %.lr.ph, label %._crit_edge.loopexit, !llvm.loop !15

._crit_edge.loopexit:                             ; preds = %.lr.ph
  %20 = tail call i32 @llvm.smax.i32(i32 %14, i32 0)
  br label %._crit_edge

._crit_edge:                                      ; preds = %._crit_edge.loopexit, %.preheader
  %.013.lcssa = phi i32 [ 0, %.preheader ], [ %20, %._crit_edge.loopexit ]
  %21 = tail call i32 @pthread_mutex_unlock(ptr noundef nonnull @g_context_lock) #11
  %.not16 = icmp eq i32 %21, 0
  br i1 %.not16, label %24, label %22

22:                                               ; preds = %._crit_edge
  %23 = tail call ptr @__errno_location() #12
  store i32 %21, ptr %23, align 4
  tail call void (ptr, ...) @fatal_abort(ptr noundef nonnull @.str.8, ptr noundef nonnull @__func__.bb_g_reconfig) #13
  unreachable

24:                                               ; preds = %._crit_edge
  %25 = call i32 @gettimeofday(ptr noundef nonnull %2, ptr noundef null) #11
  call void @slurm_diff_tv_str(ptr noundef nonnull %1, ptr noundef nonnull %2, ptr noundef nonnull %3, i32 noundef 20, ptr noundef nonnull @__func__.bb_g_reconfig, i64 noundef 0, ptr noundef nonnull %4) #11
  call void @llvm.lifetime.end.p0(i64 8, ptr nonnull %4) #11
  call void @llvm.lifetime.end.p0(i64 20, ptr nonnull %3) #11
  call void @llvm.lifetime.end.p0(i64 16, ptr nonnull %2) #11
  call void @llvm.lifetime.end.p0(i64 16, ptr nonnull %1) #11
  ret i32 %.013.lcssa
}